(lp0
(lp1
S'Chalk Outline'
p2
aS'.....((((.(((((....)).))).(((.(((....)))))).((((((....)).)))).(((((....))).)))))).......................'
p3
aS'AAAAAGAUCAGAUAGGAAACUAAUCAGAGAGAGGAAACUCCUCAGAUCAGGAAACUAGAUCAGUGAGGAAACUCAACGAUCAAAAAAAAAAAAAAAAAAAAAAA'
p4
aF0.9615384615384616
aa.