(lp0
(lp1
S'loops and stems'
p2
aS'.....(((((((...((((...((((...((((.........(((((............)))))...))))....((((..........))))...))))...(((........)))...))))..((......))...))))))).....'
p3
aS'AAAAAGCUUAUCAAAGAUCAAAGAUCAAAGAUCAAAAAAAAAGCAUCAAAAAAAAAAAAGAUGCAAAGAUCAAAAGAUCAAAAAAAAAAGAUCAAAGAUCAAAGAGAAAAAAAACUCAAAGAUCAAGGAAAAAACCAAAGAUAAGCAAAAA'
p4
aF0.8940397350993378
aa.