(lp0
(lp1
S'Anemone'
p2
aS'...((((((....))))))(((((....)))))((((((....))))))(((((....)))))((((((....))))))(((((....)))))(((((....)))))((((((....)))))).(((((....)))))((((((....))))))(((((....)))))((((((....))))))(((((....)))))((((((....))))))'
p3
aS'AAAGCUCGGGAAACCGAGCGUACCGAAAGGUACCGUUAGGAAACUAACGAUAUCGAAAGAUAUGCUUGGGAAACCAAGCAUACCGAAAGGUAUGCGUCGAAAGACGCGUAUAGGAAACUAUACAGGACCGAAAGGUCCCUAUACGAAAGUAUAGGCAUCGAAAGAUGCGGCUAGGAAACUAGCCGCAGCGAAAGCUGCGGACGGGAAACCGUCC'
p4
aF1.0
aa.