(lp0
(lp1
S'Snowflake Necklace ( or v2.0 )'
p2
aS'(((((((((((((((.(((((.((.....)).((.....)).((.....)).((.....)).((.....)).))))).(((.....))).(((((.((.....)).((.....)).((.....)).((.....)).((.....)).))))).(((.....))).(((((.((.....)).((.....)).((.....)).((.....)).((.....)).))))).(((.....))).(((((.((.....)).((.....)).((.....)).((.....)).((.....)).))))).(((.....))).(((((.((.....)).((.....)).((.....)).((.....)).((.....)).))))).)))))))))))))))'
p3
aS'CGGUCCGCCCCGGGCAGGGCGAGGAAAAACCAGCAAAAAGCACCAAAAAGGAGGAAAAACCAGCAAAAAGCACGCCCAGGCAAAAAGCCAGCCGCACCAAAAAGGAGCAAAAAGCAGGAAAAACCAGGAAAAACCAGCAAAAAGCAGCGGCAGCCAAAAAGGCAGCCCGAGGAAAAACCAGGAAAAACCAGCAAAAAGCACCAAAAAGGACCAAAAAGGACGGGCACGUAAAAAACGAGGCCGACCAAAAAGGAGGAAAAACCAGGAAAAACCAGCAAAAAGCAGCAAAAAGCACGGCCAGGUAAAAAACCAGCGCGAGGAAAAACCACCAAAAAGGAGCAAAAAGCAGGAAAAACCACCAAAAAGGACGCGCAGCCCGGGGCGGACCG'
p4
aF1.0
aa.