(lp0
(lp1
S'Arabidopsis Thaliana 6 RNA - Difficulty Level 0'
p2
aS'(((((((....(((...........)))((((((((..(((((((((((((((((((...(((((......))))).)))))).)))))))))))))..))))))))..)))))))'
p3
aS'GCGUAGCAAAAGAGAAAAAAAAAAACUCCCUCAGAGUGCUUAUAGCUAGCGGCCCAGAAAGGAUCAAAAAAGAUCCACUGGGCACGCUAGCUAUAAGUGCUCUGAGGAAGCUACGC'
p4
aF0.9655172413793104
aa.