(lp0
(lp1
S'Teslagon'
p2
aS'......((.......((.((.......((.((...............)).........((...............)).)).......)).((.......((...............)).......)).((.......((.((...............)).........((...............)).)).......)).((.......((...............)).......)).((.......((.((...............)).........((...............)).)).......)).((.......((............((...............)).)).......)).)).......))......'
p3
aS'AAAAAAGGAAAAAAAGGAGGAAAAAAAGGAGGAAAAAAAAAAAAAAAACAAAAAAAAAGGAAAAAAAAAAAAAAAACAACAAAAAAAACAGGAAAAAAAGGAAAAAAAAAAAAAAAACAAAAAAAACAGGAAAAAAAGGAGGAAAAAAAAAAAAAAAACAAAAAAAAAGGAAAAAAAAAAAAAAAACAACAAAAAAAACAGGAAAAAAAGGAAAAAAAAAAAAAAAACAAAAAAAACAGGAAAAAAAGGAGGAAAAAAAAAAAAAAAACAAAAAAAAAGGAAAAAAAAAAAAAAAACAACAAAAAAAACAGGAAAAAAAGGAAAAAAAAAAAAGGAAAAAAAAAAAAAAAACAACAAAAAAAACAACAAAAAAAACAAAAAA'
p4
aF0.7801047120418848
aa.