(lp0
(lp1
S'Short String 4'
p2
aS'......((.((..((..(...(.((.((....))))..)...(.((..((....))..))..)...).))..)))).....................'
p3
aS'AAAAAAGGAGGUGCUAAGAAAUAGGAAGGAAACUCCAAAAAAUAGGUGCGAAAACGUGCCAAAAAACAAGUGCCCCAAAAAAAAAAAAAAAAAAAAA'
p4
aF0.8350515463917526
aa.