(lp0
(lp1
S'Fractal 2'
p2
aS'.....((((((((...((((((((((..((((..........))))..((((..........))))..((((..........))))..))))))))))...((((((((((..((((..........))))..((((..........))))..((((..........))))..))))))))))...((((((((((..((((..........))))..((((..........))))..((((..........))))..))))))))))...)))))))).....'
p3
aS'AAAAAGCUUAUAUAAAGCUUCUAUAUAACAUCAAAAAAAAAAGAUGAAGAUCAAAAAAAAAAGAUCAAGAUCAAAAAAAAAAGAUCAAAUAUAGAAGCAAAGCGUAUGUAUAAGCUCAAAAAAAAAAGAGCAAGAUCAAAAAAAAAAGAUCAAGAUCAAAAAAAAAAGAUCAAAUACAUACGCAAAGCUUACAUAUAAGCCCAAAAAAAAAAGGGCAAGCCCAAAAAAAAAAGGGCAAGAUCAAAAAAAAAAGAUCAAAUAUGUAAGCAAAAUAUAAGCAAAAA'
p4
aF1.0
aa.