(lp0
(lp1
S'Adenine'
p2
aS'(((((.((((((.((((((.((((((.((((((.((((((....((((((......)))))).)))))).(((((...(((((((...)))))))))))).)))))).((((((((((((...)))))))...))))).))))))....))))))....))))))....)))))'
p3
aS'GCAUCAGCUUAGAGCUUAGAGCUUAUAGCUUAUAGCUUAGAAAAGCUUAGAAAAAACUAAGCACUAAGCAGCAUCAAAGCUUAUCAAAGAUAAGCGAUGCAAUAAGCAGCAUGGCUUAUCAAAGAUAAGCAAACAUGCAAUAAGCAAAACUAAGCAAAACUAAGCAAAAGAUGC'
p4
aF1.0
aa.