(lp0
(lp1
S'Saccharomyces Cerevisiae - Difficulty Level 0'
p2
aS'(((((((((((........)))).((...............))....(((((.......))))))))))))....(((((((..((((........))))(((.............)))....(((((.......))))))))))))....(((((((..((((........))))((((((.......))))))....(((((.......))))))))))))....(((((((..((((........))))((((((.......))))))....(((((.......))))))))))))....(((((((..((((........))))((((((.......))))))....(((((.......))))))))))))....'
p3
aS'GGUUAUGGGUCAAAAAAAAGACCAGCAAAAAAAAAAAAAAAGCAAAAGCAGCAAAAAAAGCUGCCAUAACCAAAAGCUUAUCAAGGUCAAAAAAAAGACCCUGAAAAAAAAAAAAACAGAAAAGCAUCAAAAAAAGAUGCGAUAAGCAAAACCUUAUCAAGACCAAAAAAAAGGUCCUAUAGAAAAAAACUAUAGAAAAGCAUCAAAAAAAGAUGCGAUAAGGAAAAGCUUGUCAAGAUGAAAAAAAACAUCAUAUAGAAAAAAACUAUAUAAAAGCGUCAAAAAAAGACGCGACAAGCAAAAGCGUAGCAAGAUCAAAAAAAAGAUCAUAUACAAAAAAAGUAUAUAAAAGCAUGAAAAAAACAUGCGCUACGCAAAA'
p4
aF1.0
aa.