(lp0
(lp1
S'Hoglafractal'
p2
aS'..(.((..(((((....(((((......))))))))))((((...((((.....))))))))(((..(((....)))))).(((...((((...((((......))))))))(((..(((.....))))))((.((....)))).((((....(((..(((......))))))((.((.....))))(((....))).(((((.....((.((......))))(((.....)))((....)).((((((......(((......)))((.....))...(((((((...))))))).......))))))......))))).....))))....)))...))..)...(.((.((((....((....))((....))((((((...)))))).)))))).)'
p3
aS'AAGAGGAAGCAUCAAAAGGCUCAAAAAAGAGCCGAUGCGAUGAAAGAUGAAAAACAUCCAUCCGUAAGGCGAAAGCCACGACCGAAAGCCCAAAGCCCAAAAAAGGGCGGGCGCCAAGCUAAAAAAGCGGCGGAGCGAAAGCCCACCCCAAAACGCAACCGAAAAAACGGGCGGGACCAAAAAGGCCCACGAAAGUGACCCCCAAAAAGGAGGAAAAAACCCCCGCAAAAAGCGGCGAAAGCACCCUGCAAAAAAGGGAAAAAACCCGCAAAAAGCAAACCCGCUCAAAGAGCGGGAAAAAAAGCAGGGAAAAAAGGGGGAAAAAGGGGAAAACGGAAACCAACAAAGGCGACGGCAAAAGCGAAAGCCCGAAAGGGCUCCGAAACGGAGCAGCCGCGGC'
p4
aF0.995
aa.