(lp0
(lp1
S'The Turtle(s) Move(s)'
p2
aS'...((....))....(((((((((.........)))))))))....((((.....)))).....(((....)))...(((((.......)))))....(((...((....)).....(((....)))....((((((.......))))))....(((....))).....((((((....(((.......)))..(((........)))...(((((......)))))...((((.....))))..)))))).........((....)).....((....))......(((((..........)))))......)))'
p3
aS'AAAGCGAAAGCAAAAGCUUAUAGCAAAAAAAAAGCUAUAAGCAAAAGCCGAAAAACGGCAAAAAGAGGAAACUCAAAGCGUCAAAAAAAGACGCAAAACGGAAACGGAAACGAAAAAGGGGAAACCCAGAAGCCUAGAAAAAAACUAGGCAGAAGAGGAAACUCAGAAAGCUUGGAAAAGCCAAAAAAAGGCAAGACAAAAAAAAGUCAAACCAGCAAAAAAGCUGGAAACAUCAAAAAGAUGAACCAAGCAGAAAAAAAGGGAAACUAAAAACGGAAACGAAAAAAGCAGCAAAAAAAAAAGCUGCAGAAAACCG'
p4
aF1.0
aa.