(lp0
(lp1
S'Campfire'
p2
aS'....((((..(((((..((((..((((.....))))((((((...))).)))))))((((((.((.((.(((((....)).)))))))(((((.((.((.((....))))))((((.(((....)).)).)))..)).)))))).))))))))(((.(((.(((.((((....))))))))))((((((((...))).)).))).)))))))'
p3
aS'AAAAGAUCAAGCAUCAAGAUCAAGAUCAAAAAGAUCAUCAUCAAAGAUAGAUGAUCAUCAUCAGGAGGAGAUAGGAAACUAAUCCCCCGAUGUAGGAGGAAGGAAACUCCCCAUCAAUAGGAAACUAAUAGAUAAACAAUCGAUAGAUGAUGCAUCAGAGAGAGAGAUCGAAAGAUCCUCCUCAUCAGGAGAAACUCACUAGAUAGAUGAUC'
p4
aF0.7735849056603774
aa.