(lp0
(lp1
S'Iron Cross'
p2
aS'.(((.(((...(((.(((...))).(((....))).)))...(((.(((....))).(((...))).)))...(((.(((....))).(((...))).)))...))).(((...))).)))..'
p3
aS'AGCGACCCAAAGCGAGGCAAAGCCAGGGGAAACCCACGCAAAGCCAGCGGAAACGCACCGAAACGGAGGCAAAGGCAGGGGAAACCCAGGGAAACCCAGCCAAAGGGACGGAAACCGACGCAA'
p4
aF1.0
aa.