(lp0
(lp1
S'Mutated chicken feet'
p2
aS'.......((.((.((...)).((...))...)))).((.((.((...)).((...))...)))).((.((.((...)).((...))...)))).......'
p3
aS'AAAAAAACGAGGAGCAAAGCAGCAAAGCAAACCCGACCACCACGAAACGACGAAACGAAAGGGGACCACGACCAAAGGAGGAAACCAAACGGGAAAAAAA'
p4
aF0.88
aa.