(lp0
(lp1
S'Documenting repetitious behavior'
p2
aS'.......((.........((.........((.........((.........((.........((.........((.........((.........((.........((.........((.........((.........((.........((.........((.........((.........((.........((.........)).........)).........)).........)).........)).........)).........)).........)).........)).........)).........)).........)).........)).........)).........)).........)).........)).........))......'
p3
aS'AAAAAAAGGAAAAAAAAAGGAAAAAAAAAGGAAAAAAAAAGGAAAAAAAAAGGAAAAAAAAAGGAAAAAAAAAGGAAAAAAAAAGGAAAAAAAAAGGAAAAAAAAAGGAAAAAAAAAGGAAAAAAAAAGGAAAAAAAAAGGAAAAAAAAAGGAAAAAAAAAGGAAAAAAAAAGGAAAAAAAAAGGAAAAAAAAAGGAAAAAAAAACCAAAAAAAAAACAAAAAAAAAACAAAAAAAAAACAAAAAAAAAACAAAAAAAAAACAAAAAAAAAACAAAAAAAAAACAAAAAAAAAACAAAAAAAAAACAAAAAAAAAACAAAAAAAAAACAAAAAAAAAACAAAAAAAAAACAAAAAAAAAACAAAAAAAAAACAAAAAAAAAACAAAAAAAAAACAAAAAA'
p4
aF0.82
aa.