(lp0
(lp1
S'7 multiloop'
p2
aS'(((((((((....)))))(((((....)))))(((((....)))))(((((....)))))(((((....)))))(((((....)))))))))'
p3
aS'GCCCGCACCGAAAGGUGCGCAUCGAAAGAUGCGGACCGAAAGGUCCCCAUCGAAAGAUGGGCAUCGAAAGAUGCGGAUCGAAAGAUCCGGGC'
p4
aF1.0
aa.