(lp0
(lp1
S'Recoil'
p2
aS'.....(((((..((..((..(((..(((..((..((...)).)).))).))).)).)).))))).....................'
p3
aS'AAAAAGCAUCAAGUAAGUAAGAUAAGAUAAGUAAGGAAACCAACAAUCAAUCAACAACAGAUGCGAAAAAAAAAAAAAAAAAAAA'
p4
aF0.9764705882352941
aa.