(lp0
(lp1
S'Snowflake 3'
p2
aS'(((((....)).((((((....)))..((((.((((..(((....)))(((.((....))(((...)))((....)).)))(((....)))..)))).((((..(((....)))(((.((....))(((...)))((....)).)))(((....)))..)))).((((..(((....)))(((.((....))(((...)))((....)).)))(((....)))..)))).((((..(((....)))(((.((....))(((...)))((....)).)))(((....)))..)))).((((..(((....)))(((.((....))(((...)))((....)).)))(((....)))..)))).))))..(((....)))))).((....)))))'
p3
aS'GAGGGGAAACUAGAGGAGGAAACUCAAGAUCAGAUCAAGAGGAAACUCGAGAGGGAAACUGAGAAACUCGGGAAACUACUCGAGGAAACUCAAGAUCAGAUCAAGAGGAAACUCGAGAGGGAAACUGAGAAACUCGGGAAACUACUCGAGGAAACUCAAGAUCAGAUCAAGAGGAAACUCGAGAGGGAAACUGAGAAACUCGGGAAACUACUCGAGGAAACUCAAGAUCAGAUCAAGAGGAAACUCGAGAGGGAAACUGAGAAACUCGGGAAACUACUCGAGGAAACUCAAGAUCAGAUCAAGAGGAAACUCGAGAGGGAAACUGAGAAACUCGGGAAACUACUCGAGGAAACUCAAGAUCAGAUCAAGAGGAAACUCCUCAGGGAAACUCUC'
p4
aF0.7455470737913485
aa.