(lp0
(lp1
S'Kudzu'
p2
aS'.....(((.(..(.(((((.((((.((...)))).))))((((((...)).))))..(((...)))...))).)..).)))....................'
p3
aS'AAAAAGAGGCGAGGCAUGGAGGGGAGGAAACCCCAACCCGAUCAGAAACUAGAUCAAGAGAAACUCAAAGUGGCGAGGCUCAAAAAAAAAAAAAAAAAAAA'
p4
aF0.9207920792079208
aa.