(lp0
(lp1
S'Teslagon'
p2
aS'......((.......((.((.......((.((...............)).........((...............)).)).......)).((.......((...............)).......)).((.......((.((...............)).........((...............)).)).......)).((.......((...............)).......)).((.......((.((...............)).........((...............)).)).......)).((.......((............((...............)).)).......)).)).......))......'
p3
aS'AAAAAACGAAAAAAAGCACGAAAAAAACCAGCAAAAAAAAAAAAAAAGCAAAAAAAAAGCAAAAAAAAAAAAAAAGCAGGAAAAAAACGAGCAAAAAAAGGAAAAAAAAAAAAAAACCAAAAAAAGCAGGAAAAAAACGAGCAAAAAAAAAAAAAAAGCAAAAAAAAAGGAAAAAAAAAAAAAAACCACGAAAAAAACCAGCAAAAAAACGAAAAAAAAAAAAAAACGAAAAAAAGCACGAAAAAAAGCAGGAAAAAAAAAAAAAAACCAAAAAAAAACGAAAAAAAAAAAAAAACGAGCAAAAAAACGAGCAAAAAAAGCAAAAAAAAAAAACGAAAAAAAAAAAAAAACGAGCAAAAAAAGCAGCAAAAAAACGAAAAAA'
p4
aF0.9528795811518325
aa.