(lp0
(lp1
S'Teslagon'
p2
aS'......((.......((.((.......((.((...............)).........((...............)).)).......)).((.......((...............)).......)).((.......((.((...............)).........((...............)).)).......)).((.......((...............)).......)).((.......((.((...............)).........((...............)).)).......)).((.......((............((...............)).)).......)).)).......))......'
p3
aS'AAAAAAGGAAAAAAACCACCAAAAAAAGGAGGAAAAAAAAAAAAAAACCAAAAAAAAAGGAAAAAAAAAAAAAAACCACCAAAAAAAGGACGAAAAAAAGCAAAAAAAAAAAAAAAGCAAAAAAACGAGCAAAAAAACGACGAAAAAAAAAAAAAAACGAAAAAAAAAGGAAAAAAAAAAAAAAACCACGAAAAAAAGCAGGAAAAAAACCAAAAAAAAAAAAAAAGGAAAAAAACCACGAAAAAAAGCACGAAAAAAAAAAAAAAACGAAAAAAAAACGAAAAAAAAAAAAAAACGAGCAAAAAAACGACCAAAAAAACCAAAAAAAAAAAAGCAAAAAAAAAAAAAAAGCAGGAAAAAAAGGAGGAAAAAAACCAAAAAA'
p4
aF0.9424083769633508
aa.