(lp0
(lp1
S'Teslagon'
p2
aS'......((.......((.((.......((.((...............)).........((...............)).)).......)).((.......((...............)).......)).((.......((.((...............)).........((...............)).)).......)).((.......((...............)).......)).((.......((.((...............)).........((...............)).)).......)).((.......((............((...............)).)).......)).)).......))......'
p3
aS'AAAAAAGCAAAAAAAGGACCAAAAAAAGCACCAAAAAAAAAAAAAAAGGAAAAAAAAACGAAAAAAAAAAAAAAACGAGCAAAAAAAGGAGGAAAAAAACCAAAAAAAAAAAAAAAGGAAAAAAACCACGAAAAAAAGGAGGAAAAAAAAAAAAAAACCAAAAAAAAACGAAAAAAAAAAAAAAACGACCAAAAAAACGAGGAAAAAAACGAAAAAAAAAAAAAAACGAAAAAAACCACGAAAAAAACGACCAAAAAAAAAAAAAAAGGAAAAAAAAACCAAAAAAAAAAAAAAAGGACGAAAAAAACGAGGAAAAAAACGAAAAAAAAAAAAGGAAAAAAAAAAAAAAACCACGAAAAAAACCACCAAAAAAAGCAAAAAA'
p4
aF0.9476439790575916
aa.