(lp0
(lp1
S'Teslagon'
p2
aS'......((.......((.((.......((.((...............)).........((...............)).)).......)).((.......((...............)).......)).((.......((.((...............)).........((...............)).)).......)).((.......((...............)).......)).((.......((.((...............)).........((...............)).)).......)).((.......((............((...............)).)).......)).)).......))......'
p3
aS'AAAAAACGAAAAAAACGAGGAAAAAAAGCAGGAAAAAAAAAAAAAAACCAAAAAAAAACGAAAAAAAAAAAAAAACGAGCAAAAAAACCACCAAAAAAACCAAAAAAAAAAAAAAAGGAAAAAAAGGACCAAAAAAACGACCAAAAAAAAAAAAAAAGGAAAAAAAAAGGAAAAAAAAAAAAAAACCACGAAAAAAAGGAGGAAAAAAACCAAAAAAAAAAAAAAAGGAAAAAAACCAGGAAAAAAAGCACGAAAAAAAAAAAAAAACGAAAAAAAAACCAAAAAAAAAAAAAAAGGAGCAAAAAAACCAGGAAAAAAAGCAAAAAAAAAAAAGCAAAAAAAAAAAAAAAGCAGCAAAAAAACCACGAAAAAAACGAAAAAA'
p4
aF0.9581151832460733
aa.