(lp0
(lp1
S'Teslagon'
p2
aS'......((.......((.((.......((.((...............)).........((...............)).)).......)).((.......((...............)).......)).((.......((.((...............)).........((...............)).)).......)).((.......((...............)).......)).((.......((.((...............)).........((...............)).)).......)).((.......((............((...............)).)).......)).)).......))......'
p3
aS'AAAAAACCAAAAAAAGCAGGAAAAAAACCAGGAAAAAAAAAAAAAAACCAAAAAAAAAGGAAAAAAAAAAAAAAACCAGGAAAAAAACCAGGAAAAAAACCAAAAAAAAAAAAAAAGGAAAAAAACCAGGAAAAAAAGCAGGAAAAAAAAAAAAAAACCAAAAAAAAACCAAAAAAAAAAAAAAAGGAGCAAAAAAACCACCAAAAAAACGAAAAAAAAAAAAAAACGAAAAAAAGGACCAAAAAAAGCACGAAAAAAAAAAAAAAACGAAAAAAAAACCAAAAAAAAAAAAAAAGGAGCAAAAAAAGGAGCAAAAAAACGAAAAAAAAAAAAGGAAAAAAAAAAAAAAACCACGAAAAAAAGCAGCAAAAAAAGGAAAAAA'
p4
aF0.9267015706806283
aa.