(lp0
(lp1
S'Documenting repetitious behavior'
p2
aS'.......((.........((.........((.........((.........((.........((.........((.........((.........((.........((.........((.........((.........((.........((.........((.........((.........((.........((.........)).........)).........)).........)).........)).........)).........)).........)).........)).........)).........)).........)).........)).........)).........)).........)).........)).........))......'
p3
aS'AAAAAAAGCAAAAAAAAAGCAAAAAAAAAGCAAAAAAAAAGGAAAAAAAAAGGAAAAAAAAAGGAAAAAAAAAGCAAAAAAAAAGGAAAAAAAAAGCAAAAAAAAAGGAAAAAAAAAGGAAAAAAAAAGGAAAAAAAAAGGAAAAAAAAAGCAAAAAAAAAGGAAAAAAAAAGCAAAAAAAAAGGAAAAAAAAAGGAAAAAAAAACCAAAAAAAAACCAAAAAAAAAGCAAAAAAAAACCAAAAAAAAAGCAAAAAAAAACCAAAAAAAAACCAAAAAAAAACCAAAAAAAAACCAAAAAAAAAGCAAAAAAAAACCAAAAAAAAAGCAAAAAAAAACCAAAAAAAAACCAAAAAAAAACCAAAAAAAAAGCAAAAAAAAAGCAAAAAAAAAGCAAAAAA'
p4
aF1.0
aa.