(lp0
(lp1
S'Documenting repetitious behavior'
p2
aS'.......((.........((.........((.........((.........((.........((.........((.........((.........((.........((.........((.........((.........((.........((.........((.........((.........((.........((.........)).........)).........)).........)).........)).........)).........)).........)).........)).........)).........)).........)).........)).........)).........)).........)).........)).........))......'
p3
aS'AAAAAAAGGAAAAAAAAACCAAAAAAAAACCAAAAAAAAAGCAAAAAAAAACCAAAAAAAAAGCAAAAAAAAAGGAAAAAAAAAGCAAAAAAAAAGGAAAAAAAAAGCAAAAAAAAAGGAAAAAAAAAGGAAAAAAAAAGGAAAAAAAAACGAAAAAAAAACGAAAAAAAAAGGAAAAAAAAACGAAAAAAAAAGCAAAAAAAAAGCAAAAAAAAACGAAAAAAAAACCAAAAAAAAACGAAAAAAAAACGAAAAAAAAACCAAAAAAAAACCAAAAAAAAACCAAAAAAAAAGCAAAAAAAAACCAAAAAAAAAGCAAAAAAAAACCAAAAAAAAAGCAAAAAAAAAGGAAAAAAAAAGCAAAAAAAAAGGAAAAAAAAAGGAAAAAAAAACCAAAAAA'
p4
aF1.0
aa.