(lp0
(lp1
S'Documenting repetitious behavior'
p2
aS'.......((.........((.........((.........((.........((.........((.........((.........((.........((.........((.........((.........((.........((.........((.........((.........((.........((.........((.........)).........)).........)).........)).........)).........)).........)).........)).........)).........)).........)).........)).........)).........)).........)).........)).........)).........))......'
p3
aS'AAAAAAAGGAAAAAAAAAGCAAAAAAAAAGGAAAAAAAAACCAAAAAAAAAGCAAAAAAAAAGGAAAAAAAAAGGAAAAAAAAAGGAAAAAAAAAGGAAAAAAAAAGGAAAAAAAAAGCAAAAAAAAACCAAAAAAAAACGAAAAAAAAACGAAAAAAAAAGGAAAAAAAAAGGAAAAAAAAAGCAAAAAAAAAGGAAAAAAAAACCAAAAAAAAAGCAAAAAAAAACCAAAAAAAAACCAAAAAAAAACGAAAAAAAAACGAAAAAAAAAGGAAAAAAAAAGCAAAAAAAAACCAAAAAAAAACCAAAAAAAAACCAAAAAAAAACCAAAAAAAAACCAAAAAAAAAGCAAAAAAAAAGGAAAAAAAAACCAAAAAAAAAGCAAAAAAAAACCAAAAAA'
p4
aF1.0
aa.