(lp0
(lp1
S'Triple Y'
p2
aS'.....((((((((((((....))))((((....))))))))((((((((....))))((((....))))))))))))....................'
p3
aS'AAAAAGAUCGAUCGAUCGAAAGAUCGAUCGAAAGAUCGAUCGAUCGAUCGAAAGAUCGAUCGAAAGAUCGAUCGAUCAAAAAAAAAAAAAAAAAAAA'
p4
aF0.9175257731958762
aa.