(lp0
(lp1
S'just down to 1 bulge'
p2
aS'.....((((.(((((....))))).(((....))).)).))....((((.(((....))).(((....))).))))....................'
p3
aS'AAAAAGGGGAGCAUCGAAAGAUGCAGAGGAAACUCAACAACAAAAGAUCAGAGGAAACUCAGAGGAAACUCAGAUCAAAAAAAAAAAAAAAAAAAA'
p4
aF0.9166666666666666
aa.