(lp0
(lp1
S'loops and stems'
p2
aS'.....(((((((...((((...((((...((((.........(((((............)))))...))))....((((..........))))...))))...(((........)))...))))..((......))...))))))).....'
p3
aS'AAAAAGCUUAUCAAAGAGCAAAGCGCAAAGACGAAAAAAAAAGGAUCAAAAAAAAAAAAGAUCCAAACGUCAAAAGAUCAAAAAAAAAAGAUCAAAGCGCAAAGGGAAAAAAAACCCAAAGCUCAAGGAAAAAACCAAAGAUAAGCAAAAA'
p4
aF1.0
aa.