(lp0
(lp1
S'Multiloop...'
p2
aS'((((.((((.(((....))).(((....))).(((....))).(((....))).(((....))).(((....))).)))).(((((......)))))(((....)))))))'
p3
aS'GAUCAGAUCAGAGGAAACUCAGAGGAAACUCAGAGGAAACUCAGAGGAAACUCAGAGGAAACUCAGAGGAAACUCAGAUCAGCAUCAAAAAAGAUGCGAGGAAACUCGAUC'
p4
aF0.8918918918918919
aa.