(lp0
(lp1
S'Gladius'
p2
aS'(....)..(....(...(..(.(..(...(((.(((...((((....)))).(((((..(.(((..(.((((..(.((((..(.((((((((.((((((.(((((.((((.((((..((((...)))).))).)))))).))))).)))))).)))))))..).))))..).))))..).)))..).))))).)))...(((.(((((.(..(((.(..((((.(..((((.(..(((((((.((((((.(((((.((((((.(((.((((((....))))))..)))).)))).))))).)))))).)))))))).)..)))).)..)))).)..))).)..))))).((((....))))...))).)))...)..).)..)...)....)..(....)'
p3
aS'GAAAACAAGAAAAGAAAGUGCAGUGCAAAGAGAGAGAAAGAUCGAAAGAUCAGCAUCAAUAGAUAAUAGAUCAAUAGAUCAAUAGCUUAUCCAGCAUCCAGAUCCAGAUCAUGAUAAGAUCAAAGAUCAAUCAAGAUCGAGAUCGAGAUGCGAGAUAAGCAAAAGAUCAAAAGAUCAAAAAUCAAAAGAUGCACUCAAAGAGAGCAUCAUAAGAUAUAAGAUCAUAAGAUCAUAAGCUUAUCAUGCAUCAUGAUCAUGAUCCAGAUAGCUUAGGAAACUAAGCAAAUCGAGAUCAAGAUCAAGAUGCAAGAUAAGCAAAAGAUCAAAAGAUCAAAAAUCAAAAGAUGCAGAUCGAAAGAUCAAACUCACUCAAAGUGCAGUGCAAACAAAACAAGAAAAC'
p4
aF0.745
aa.