(lp0
(lp1
S'[CloudBeta] An Arm and a Leg 1.0'
p2
aS'.....(((.(((((....)).)))(((.((....))))).)))....................'
p3
aS'AAAAAGACAGCCGGGAAACCAGGCGGGAGGGAAACCCCCAGUCAAAAAAAAAAAAAAAAAAAA'
p4
aF1.0
aa.