(lp0
(lp1
S'Multiloop...'
p2
aS'((((.((((.(((....))).(((....))).(((....))).(((....))).(((....))).(((....))).)))).(((((......)))))(((....)))))))'
p3
aS'GAGCAGACCAGCGGAAACGCACAGGAAACUGAGAGGAAACUCAGAGGAAACUCAGCGGAAACGCACAGGAAACUGAGGUCAGCCCCAAAAAAGGGGCGAGGAAACUCGCUC'
p4
aF1.0
aa.