(lp0
(lp1
S'just down to 1 bulge'
p2
aS'.....((((.(((((....))))).(((....))).)).))....((((.(((....))).(((....))).))))....................'
p3
aS'AAAAAGGGCAGCAUCGAAAGAUGCAGAGGAAACUCAGCACCAAAAGGUCAGAGGAAACUCAGAGGAAACUCAGACCAAAAAAAAAAAAAAAAAAAA'
p4
aF1.0
aa.