(lp0
(lp1
S'Tilted Russian Cross'
p2
aS'.....((((((((....))))((((.((((....))))(((((....))))).((((....))))))))((((....))))))))....................'
p3
aS'AAAAAGGUCCUCGGAAACGAGCGCCAGAUCGAAAGAUCGCAUCGAAAGAUGCAGGUCGAAAGACCGGCGAUAGGAAACUAUGACCAAAAAAAAAAAAAAAAAAAA'
p4
aF1.0
aa.