(lp0
(lp1
S'Shape Test'
p2
aS'.....(.((((..(((((........)))))..(((.(((.(((((.....))))).((((....)))).))))))..)))).)....................'
p3
aS'AAAAAGGCAUCAAGCAUCAAAAAAAAGAUGCAAGAGAGAUAGCAUCAAAAAGAUGCAGAUCGAAAGAUCAAUCCUCAAGAUGGCAAAAAAAAAAAAAAAAAAAA'
p4
aF1.0
aa.