(lp0
(lp1
S'Multilooping 6'
p2
aS'..(((((((((((((....)))))(((((....))))))))((((((((....)))))(((((....)))))))))))))..'
p3
aS'AGGCAUCGAUGCAUCGAAAGAUGCGCAUCGAAAGAUGCAUCGAUGCAUCGAAAGAUGCGCAUCGAAAGAUGCAUCGAUGCAG'
p4
aF0.6829268292682927
aa.