(lp0
(lp1
S'[CloudBeta] 5 Adjacent Stack Multi-Branch Loop'
p2
aS'(((((((((....))))(((((....)))))(((((....)))))((((....))))))))).'
p3
aS'GCGGCGAUCGAAAGAUCGCAUCGAAAGAUGCGCAUCGAAAGAUGCGGUCGAAAGACCGCCGCA'
p4
aF1.0
aa.