(lp0
(lp1
S'medallion'
p2
aS'((((((.((((((....)))))).(((....))).(((....))).((((((....)))))).(((....))).((((((....)))))).(((....))).(((....))).((((((....)))))).(((....))).((((((....)))))).(((....))).(((....))).((((((....)))))).(((....))).((((((....)))))).(((....))).(((....))).((((((....)))))).(((....))).((((((....)))))).(((....))).(((....))).((((((....)))))).))))))'
p3
aS'GGUCAGAGCCUAGGAAACUAGGCAGAGGAAACUCAGACGAAAGUCAGCUUAGGAAACUAAGCAGAGGAAACUCAGCUGAGGAAACUCAGCACAGGAAACUGAGGCGAAAGCCAGCUUAGGAAACUAAGCAGGGGAAACCCAGCUGAGGAAACUCAGCAGAGGAAACUCAGCGGAAACGCAGCUUACGAAAGUAAGCAGCCGAAAGGCAGCUUAGGAAACUAAGCAGAGGAAACUCAGAGGAAACUCAGGUUCGGAAACGAACCAGCGGAAACGCAGCUUAGGAAACUAAGCAGAGGAAACUCAGAGGAAACUCAGCUUAGGAAACUAAGCACUGACC'
p4
aF1.0
aa.