(lp0
(lp1
S'Hard Y and a bit more'
p2
aS'.....(((((((.(((((....)))).)))(((((.((..((((....))))..(((((......)))))..)).))))))))))...................._'
p3
aS'AAAAAGGGCCGGAGGGUCGAAAGACCACCCGGGCCAGCAAGAGCGAAAGCUCAACCGCGAAAAAACGCGGAAGCAGGCCCGGCCCGAAAAAAAAAAAAAAAAAAAA'
p4
aF0.9716981132075472
aa.