(lp0
(lp1
S'Shapes and Energy'
p2
aS'......(.((((.((((....(...((((.(....).))))...)))))..((......((((....)))))).)))).).....................'
p3
aS'AAAAAAGGCAUCAGAUCAAAAGAAAGAUCAGAAAACAGAUCAAACGAUCAAGGAAAAAAGAUCGAAAGAUCACAGAUGGCGAAAAAAAAAAAAAAAAAAAA'
p4
aF0.7524752475247525
aa.