(lp0
(lp1
S'Fractal star x5'
p2
aS'.....((((((((..((((....))))..((((....))))..((((....))))..((((....))))..)))))))).....((((((((..((((....))))..((((....))))..((((....))))..((((....))))..)))))))).....((((((((..((((....))))..((((....))))..((((....))))..((((....))))..)))))))).....((((((((..((((....))))..((((....))))..((((....))))..((((....))))..)))))))).....((((((((..((((....))))..((((....))))..((((....))))..((((....))))..)))))))).....'
p3
aS'AGGGAGCUUAUAUAAGAUCGAAAGAUCAAGAUCGAAAGAUCAAGAUCGAAAGAUCAAGAUCGAAAGAUCAAAUAUAAGCAGGGAGCUUAUAUAAGAUCGAAAGAUCAAGAUCGAAAGAUCAAGAUCGAAAGAUCAAGAUCGAAAGAUCAAAUAUAAGCAGGGAGCUUAUAUAAGAUCGAAAGAUCAAGAUCGAAAGAUCAAGAUCGAAAGAUCAAGAUCGAAAGAUCAAAUAUAAGCAGGGAGCUUAUAUAAGAUCGAAAGAUCAAGAUCGAAAGAUCAAGAUCGAAAGAUCAAGAUCGAAAGAUCAAAUAUAAGCAGGGAGCUUAUAUAAGAUCGAAAGAUCAAGAUCGAAAGAUCAAGAUCGAAAGAUCAAGAUCGAAAGAUCAAAUAUAAGCAGGGA'
p4
aF0.64
aa.