(lp0
(lp1
S'Cesspool'
p2
aS'(..(..(....)..(((..(.(.(((...)))..)..)..)))..(..(....)..).(..(....)..).....(....)..)..)..(..(..(....)..(((..(.(.(((...)))..)..)..)))..(..(....)..).(..(....)..).....(....)..)..)..((..(..(....)..(((..(.(.(((...)))..)..)..)))..(..(....)..).(..(....)..).....(....)..)..))..((..(..(....)..(((..(.(.(((...)))..)..)..)))..(..(....)..).(..(....)..).....(....)..)..))'
p3
aS'GUGCAAGAAAACAAGGCUGGAGACGCAAAGCGAACAACUGGCCAACUGCAAAAGUGGACUGCAAAAGUGGAAAAAGAAAACAAGUGCAAGUGCAACAAAAGAAGGCUGGACACCCAAAGGGAAGAACUGGCCAACUGGAAAACUGGACUGGAAAACUGGAAAAAGAAAACAAGUGCAAGCUGGAACAAAAGAAGCGUGCACAGCGAAACGCAAGAAGUGCGCAAGUGCAAAAGUGCACUGGAAAACUGGAAAAAGAAAACAACUGGCAACCUGCAAGAAAACAACCCUGCAGACGCAAAGCGAACAAGUGGGGAACUGCAAAAGUGGAGUGCAAAAGUGCAAAAACAAAAGAAGUGGG'
p4
aF0.7486033519553073
aa.