(lp0
(lp1
S'Water Strider'
p2
aS'.....((.((..(((((.(((....)))(((....)))))).....((((((....)))(((....))).)))))..)).)).....................'
p3
aS'AAAAAGGGCGUGCGGAGAGAGGAAACUCGAGGAAACUCCUCAAAAAGAGGAGGAAACUCGAGGAAACUCAAUCCGUGCGGCCAAAAAAAAAAAAAAAAAAAAA'
p4
aF0.7669902912621359
aa.