(lp0
(lp1
S'Runner'
p2
aS'.....((((.((((.....((((...)))).))))...(((..((((((...)))...)))((((((...)))...))).)))...(((...(((....))).))).)))).....'
p3
aS'AAAAAGCGCAGGUGAAAAACCCCAAAGGGGACACCAAAGCCAAGCCCGCAAAGCGAAAGGCGGCCCGAAACGGAAAGCCAGGCAAACACAAAGACGAAAGUCAGUGAGCGCAAAAA'
p4
aF1.0
aa.