(lp0
(lp1
S'Fractal 3'
p2
aS'.....((((.(((.((....))((....)).))).(((.((....))((....)).))).(((.((....))((....)).))).(((.((....))((....)).))).)))).....'
p3
aS'AAAAACCGCAGGCACCGAAAGGGGGAAACCAGCCAGGCAGGGAAACCGCGAAAGCAGCCACCCAGGGAAACCGCGAAAGCAGGGAGCGACCGAAAGGGGGAAACCACGCAGCGGAAAAA'
p4
aF1.0
aa.