(lp0
(lp1
S'Hoglafractal'
p2
aS'..(.((..(((((....(((((......))))))))))((((...((((.....))))))))(((..(((....)))))).(((...((((...((((......))))))))(((..(((.....))))))((.((....)))).((((....(((..(((......))))))((.((.....))))(((....))).(((((.....((.((......))))(((.....)))((....)).((((((......(((......)))((.....))...(((((((...))))))).......))))))......))))).....))))....)))...))..)...(.((.((((....((....))((....))((((((...)))))).)))))).)'
p3
aS'AAUAGUAAGCAUCAAAAGCAUCAAAAAAGAUGCGAUGCGAUCAAAGAUCAAAAAGAUCGAUCGAUAAGAGGAAACUCAUCAGAUAAAGAUCAAAGAUCAAAAAAGAUCGAUCAUCAAGAUAAAAAAUCGAUGGAAGGAAACUCCAGAUCAAAAGAUAAGAGAAAAAACUCAUCAGAGUAAAAAACCUGAGGAAACUCAGCAUCAAAAAGGAGGAAAAAACCCCAUCAAAAAGAUAGGAAACUAGCUUAUAAAAAAGAGAAAAAACUCAUAAAAAAUAAAGCUUAUCAAAGAUAAGCAAAAAAAAUAAGCAAAAAAGAUGCAAAAAGAUCAAAAAUCAAAACAAAAAAGGCGAGAUCAAAAGGGAAACCAGGAAACUGCUUAGAAACUAAGCAGAUCCGGC'
p4
aF0.745
aa.