(lp0
(lp1
S'Shooting Star'
p2
aS'(((((((((((((((((...(.(..((.(((.(((.((....).))).)))).).)..))..))))))).(((((..(.(..((.(((.(((((.(((.((((.((....).)))).))))).))).)))).).)..))..)(....)..))))(((((((((...))))).(((((...)))))(.(....).).)))).)))).((((.((((...(((((((...))))))).(((((...)))))))))(((((((...))))))).(((((...)))))))))((((..(....)(..(..(..(.(.(((.((((.((....).)))).)))).)..)..).)..))))).)))))).'
p3
aS'GCUUAGGAUCGCUUAUCAAAGAGUGCAGCAUAGGGAGGAAAACAACCAAAUGGUAGUGCCAAGAUAAGCAGAUCAGAUAGUGCAGCAUAGGAGGAGAGAGGAGAGGAAAACAACUCAACUCCAAUCAAAUGGUAGUGCAGAUGAAAACAAGAUCGAUCGCAUCAAAGAUGCAGCAUCAAAGAUGCGGCAAAAGGCAGAUCAGAUCAGAUCAGAUCAAAGCUUAUCAAAGAUAAGCAGCAUCAAAGAUGCGAUCGCUUAUCAAAGAUAAGCAGCAUCAAAGAUGCGAUCGAUCAAGAAAACAGAUAAGUGCAGGCAUAGGAGAGGAAAACAACUCAAAUGGCAAGUGCAAGAUGAUCACUAAGCA'
p4
aF0.771978021978022
aa.