(lp0
(lp1
S'Taraxacum officinale'
p2
aS'((((....).))).((((....).))).((((....).))).((((....).))).((((....).))).((((....).))).((((((((((((((((((((((...)))).))))))).(((((..((((((((((..(((((((...))))))).))))))))))((((.((((((...)))))))))))))))...))))))))))).((((....).))).((((....).))).((((....).))).((((....).))).((((....).)))'
p3
aS'CGCCAAAAGAGCGACCGCAAAAGACGGAGCCCAAAAGAGGCACGGCAAAAGACCGACGCCAAAAGAGCGACCGGAAAACACGGAGCCUCCCCGUGCCUUGGGGGCGAAACGCCACCCAAGGACCCCCAAGCCUGUGGCGAACGGCGUCAAAGACGCCGACGCCACAGGCCUGGACGUGCGAAACGCACGCCAGGGGGGAAACACGGGGAGGCAGGCCAAAAGAGCCACGCCAAAAGAGCGACGCCAAAAGAGCGAGCCCAAAAGAGGCAGCGCAAAAGACGC'
p4
aF0.9645390070921985
aa.