(lp0
(lp1
S'Taraxacum officinale'
p2
aS'((((....).))).((((....).))).((((....).))).((((....).))).((((....).))).((((....).))).((((((((((((((((((((((...)))).))))))).(((((..((((((((((..(((((((...))))))).))))))))))((((.((((((...)))))))))))))))...))))))))))).((((....).))).((((....).))).((((....).))).((((....).))).((((....).)))'
p3
aS'GGGCAAAAGACCCAGCGCAAAAGACGCACGGCAAAAGACCGAGCGCAAAAGACGCAGGCCAAAAGAGCCAGCCCAAAAGAGGCAGCCCAGCUAGGCGGGGUGCCAGAAACUGGACACCCCGACGAUCAAGGCGGCGGCCAACCGUCGGAAACCGACGGAGGCCGCCGCCAUGCACGCAUGAAACAUGCGGCAUGAUCGAAACCUAGCUGGGCACCGCAAAAGACGGACGGCAAAAGACCGACGCGAAAACAGCGACCGCAAAAGACGGACGCCAAAAGAGCG'
p4
aF0.9858156028368794
aa.