(lp0
(lp1
S'Taraxacum officinale'
p2
aS'((((....).))).((((....).))).((((....).))).((((....).))).((((....).))).((((....).))).((((((((((((((((((((((...)))).))))))).(((((..((((((((((..(((((((...))))))).))))))))))((((.((((((...)))))))))))))))...))))))))))).((((....).))).((((....).))).((((....).))).((((....).))).((((....).)))'
p3
aS'GCGCAAAAGACGCAGCGCAAAAGACGCACCGGAAAACACGGACGGCAAAAGACCGACGGCAAAAGACCGAGCGCAAAAGACGCAGGCCCCGCACCCCCCCGCGGCGAAACGCCAGCGGGGGAGCGCGAAGGUUCUAGGGAAGGCCCUGAAACAGGGCCACCCUAGAACCGGAGAGGCAUCAAAGAUGCCCUCCCGCGCAAAGGUGCGGGGCCAGACCAAAAGAGUCACCCCAAAAGAGGGAGGGCAAAAGACCCAGCGGAAAACACGCAGGGCAAAAGACCC'
p4
aF0.9716312056737588
aa.