(lp0
(lp1
S'Variation of a crop circle'
p2
aS'....((....((....((....((..((..((...))..))....))......)).......)).........)).............'
p3
aS'AAAAGCAAAAGCAAAAGGAAAACCAACGUGCCAAAGGUGCGAAAAGGAAAAAACCAAAAAAAGCAAAAAAAAAGCAAAAAAAAAAAAA'
p4
aF0.9090909090909091
aa.