(lp0
(lp1
S'[CloudBeta] An Arm and a Leg 1.0'
p2
aS'.....(((.(((((....)).)))(((.((....))))).)))....................'
p3
aS'AAAAAGAGAGAGGGGAAACUAAUCAUCAGGGAAACUGAUAAUCAAAAAAAAAAAAAAAAAAAA'
p4
aF0.8095238095238095
aa.