(lp0
(lp1
S'Misfolded Aptamer 6'
p2
aS'......(((......((((..(....(((........)))....).....)))).......)))...........'
p3
aS'AAAAAACGGAAAAAAGCGCAACAAAACGGAAAAAAAACCGAAAAGAAAAAGCGCAAAAAAACCGAAAAAAAAAAA'
p4
aF0.9733333333333334
aa.