(lp0
(lp1
S'Headless Bug on Windshield'
p2
aS'.((.((.....(((((...((.(((.........................))).))...))).))...)).)).(((..(((..((.......((....)).......)))))......))).(((((.......(((..((..(((..((.(((...............)))..))..)))..)).)))..))..))).'
p3
aS'ACGGCCAAAAAGGGCGAAACGGGCCAAAAAAAAAAAAAAAAAAAAAAAAAGGCGCGAAACGCACCAAAGGGCGAGCGAACGCAAGGAAAAAAACGGAAACGAAAAAAACCGCGAAAAAACGCACGGCGAAAAAAACGCAACCUGCCCUGCGACGGAAAAAAAAAAAAAAACCGAACGUGGGGUGGGAGCGAACGAACCGA'
p4
aF0.94
aa.