(lp0
(lp1
S'The Gammaretrovirus Signal - Difficulty Level 0'
p2
aS'..(.(..((((((....))))))..).)......((((..(((.(((((((((....)))))....)))))))))))..((((((((....))))))))..'
p3
aS'AAGGCGAGCUUAGGAAACUAAGCGAGGCAAAAAAGAUCAAGAGAGAUCGCAUCGAAAGAUGCAAAAGAUCCUCGAUCAAGCUUAUAGGAAACUAUAAGCAA'
p4
aF1.0
aa.