(lp0
(lp1
S'Looking Back Again'
p2
aS'(((..(((((((.....((((((...)))))).))))..((((((..(((...)))))).(((((...((((....))))....)))))..)))..)))..(((((((.....(((((....)))))......)))((((((((((...)))))(((((...)))))((((((((..(..(..(..(..(..((((....))))..).)..))..).))(((....)))..))))))...))))))))).(((((.((((......(((((((........((((.....))))))))...))).))))((((......((((((((....))))))..(((((...)).(((((...)))))..)))))....)))))))))...)))'
p3
aS'CGCAACGGGAGCAAAAAGGGCGCAAAGCGCCCAGCUCAAGCCCGCAACCGAAACGGGCGAGCGGGAAAGGCGGAAACGCCAAAACCCGCAAGGCAACCGAAGGGCCCGAAAAACCCCGGAAACGGGGAAAAAACGGCCCGCGGAUGAAACAUCCGGCGCAAAGCGCCGCGUGGCCAACUGGAACUGCAACUGGACCGAAAGGUCUGGAGUGGCUGGAGGGCCGAAAGGCAACCACGCAAAGCGGGGCCCAGGCCCACCCCAAAAAAGGCGGGCAAAAAAAAGCCCAAAAAGGGCGCCCAAAGCCAGGGGGAUCAAAAAACCCCUCAGGAAACUGAGGAAGCGGCAAAGCAGGAUCAAAGAUCCAACGCGGAAAAGAUCGGGCCAAAGCG'
p4
aF0.9691516709511568
aa.