(lp0
(lp1
S'Looking Back Again'
p2
aS'(((..(((((((.....((((((...)))))).))))..((((((..(((...)))))).(((((...((((....))))....)))))..)))..)))..(((((((.....(((((....)))))......)))((((((((((...)))))(((((...)))))((((((((..(..(..(..(..(..((((....))))..).)..))..).))(((....)))..))))))...))))))))).(((((.((((......(((((((........((((.....))))))))...))).))))((((......((((((((....))))))..(((((...)).(((((...)))))..)))))....)))))))))...)))'
p3
aS'CGGAACCGGAUCAAAAACCGUCGAAACGACGGAGAUCAAGAGGGCAACCGAAACGGGCCACGGGCAAAGGCGGAAACGCCAAAAGCCCGAACUCAACGGAAGAUCGCGAAAAAGGAUGGAAACAUCCAAAAAACGCGCCGCGCACCAAAGGUGCGCAUCAAAGAUGCCCGCAGGGAACUGCAAGUGCAACUGCAUCGAAAGAUGUGGAGUGCGUGGACCGGCGAAAGCCAACUGCGGAAAGCGGCGAUCAGCGUCAGGGCAAAAAAGCCCGCCAAAAAAAAGGCCAAAAAGGCCGGCGAAAGGCAGCCCGCCGAAAAAACGCCUUCGGAAACGAAGGAAGCGGGAAACCAGCCGGAAACCGGCAACGCCGAAAACGGCGACGCAAACCG'
p4
aF0.9588688946015425
aa.