(lp0
(lp1
S'Bullseye'
p2
aS'...(((((((...))))..((((...))))..((((...)))))))........(((((((...))))..((((...))))..((((...)))))))........(((((((...))))..((((...))))..((((...)))))))........(((((((...))))..((((...))))..((((...)))))))...'
p3
aS'AAACCGGCGCAAAGCGCAAGGGCAAAGCCCAACGGCAAAGCCGCGGAAAAAAAACCCGCGCAAAGCGCAACAUCAAAGAUGAAGACCAAAGGUCGGGAAAAAAAAGAGGCUCAAAGAGCAAGAUCAAAGAUCAAGACCAAAGGUCCUCAAAAAAAAGACCGUCAAAGACGAAGAUCAAAGAUCAAGAUCAAAGAUCGUCAAA'
p4
aF1.0
aa.