(lp0
(lp1
S'Thunderbolt'
p2
aS'((..(((((........(.((..((.(.....(....).((((((((.........((......((((.....))))......))...((..((.......(..(......)..)..((..((.....(....).((((.....(((.....(..((.(...).))..).....))).((((...(.......(..(.((...)).)..).......)...))))........)))).....((((((...)))))).))..))...........))..)).........(..((....)((((((.....(........).....))))))..)..)...))))))))........).))..)).).....(.......).)))))..)).'
p3
aS'GGUGGCUCGAAAAAAAACGCGUGGCGGAAAAAGAAAACAGGGGAGGGAAAAAAAAACCAAAAAAGGCCAAAAAGGCCAAAAAAGGAAACGUGCGAAAAAAACUGCAAAAAAGUGGAACCUGGGAAAAAGAAAACAGCCGAAAAAGGGAAAAAGUGGGGCAAAGGCCUGCAAAAACCCAGGGCAAACAAAAAAAGUGCAGCAAAGCAGUGCAAAAAAAGAAAGCCCAAAAAAAACGGCAAAAAGCGGACAAAGUCCGCACCUGGGAAAAAAAAAAACGUGCGAAAAAAAAAGUGGGGAAACGGCUCGAAAAACAAAAAAAAGAAAAACGAGCCAACUGCAAACCCUCCCCAAAAAAAACGGCUGCGGGAAAAACAAAAAAAGACGAGCUGCCA'
p4
aF0.8903061224489796
aa.