(lp0
(lp1
S'[CloudBeta] 5 Adjacent Stack Multi-Branch Loop'
p2
aS'(((((((((....))))(((((....)))))(((((....)))))((((....))))))))).'
p3
aS'GCAUCGAUCGAAAGAUCGCAUCGAAAGAUGCGCAUCGAAAGAUGCGAUCGAAAGAUCGAUGCA'
p4
aF0.7142857142857143
aa.