(lp0
(lp1
S'Thunderbolt'
p2
aS'((..(((((........(.((..((.(.....(....).((((((((.........((......((((.....))))......))...((..((.......(..(......)..)..((..((.....(....).((((.....(((.....(..((.(...).))..).....))).((((...(.......(..(.((...)).)..).......)...))))........)))).....((((((...)))))).))..))...........))..)).........(..((....)((((((.....(........).....))))))..)..)...))))))))........).))..)).).....(.......).)))))..)).'
p3
aS'GGUGCUUAUAAAAAAAAGGCGUGCGGCAAAAAGAAAACAGCUUAUAGAAAAAAAAAGUAAAAAAGAUCAAAAAGAUCAAAAAAACAAAGGUGCUAAAAAAAGUGCAAAAAAGUGCAAGGUGCUAAAAAGAAAACAGAUCAAAAAGAGAAAAAGUGCGGCAAAGGCGUGCAAAAACUCAGAUCAAAUAAAAAAAGUGCAGGAAACCAGUGCAAAAAAAAAAAGAUCAAAAAAAAGAUCAAAAAGCUUAGAAACUAAGCAAGUGCCAAAAAAAAAAAAGUGCCAAAAAAAAAGUGCAGAAAUGCUUAGAAAAAGAAAAAAAACAAAAACUAAGCAAGUGCAAACUAUAAGCAAAAAAAAGGCGUGCGGCAAAAAUAAAAAAAAAAUAAGUGCCA'
p4
aF0.8086734693877551
aa.