(lp0
(lp1
S'Misfolded Aptamer 6'
p2
aS'......(((......((((..(....(((........)))....).....)))).......)))...........'
p3
aS'AAAAAAGAGAAAAAAGAUCAAGAAAAGAGAAAAAAAACUCAAAACAAAAAGAUCAAAAAAAAUCAAAAAAAAAAA'
p4
aF0.8933333333333333
aa.