(lp0
(lp1
S'The Sun'
p2
aS'(((.(((((((...))))..))))))...(((.(((((((...))))..))))))...(((.(((((((...))))..))))))...(((.(((((((...))))..))))))...(((.(((((((...))))..))))))...(((.(((((((...))))..))))))...(((.(((((((...))))..))))))...(((.(((((((...))))..))))))...(((.(((((((...))))..))))))'
p3
aS'GAGAGAGGAUCAAAGAUCAACUCCUCAAAGAGAGAGGAUCAAAGAUCAACUCCUCAAAGAGAGAGGAUCAAAGAUCAACUCCUCAAAGAGAGAGGAUCAAAGAUCAACUCCUCAAAGAGAGAGGAUCAAAGAUCAACUCCUCAAAGAGAGAGGAUCAAAGAUCAACUCCUCAAAGAGAGAGGAUCAAAGAUCAACUCCUCAAAGAGAGAGGAUCAAAGAUCAACUCCUCAAAGAGAGAGGAUCAAAGAUCAACUCCUC'
p4
aF0.689922480620155
aa.