(lp0
(lp1
S'JF1'
p2
aS'(((((((((((.(((((..(((((....((((((..(((((...(((((..((((((.((((((((((((((....))))))))))))))..(((....))).(((((((((....)))))))))..(((((....))))).)))))).))))).))))).))))))...((((((((.....))).)))))..((((((((((((((((((((((((....)))))))))))))).))))))))))...(((((......)))))((((((((((....))))))))))...((((....))))..)))))..))))).((((.(((.(((....)))))))))).(((((((((....))))).)))).)))).))).))))...'
p3
aS'GAUCAUCAUAGAGCAUCGAGCAUCAAAAGCUUAUAAGCAUCAAAGCAUCAAGCUUAUAGCUUAUAUAUAUAGGAAACUAUAUAUAUAAGCAAGAGGAAACUCAGCUUAUAUCGAAAGAUAUAAGCAAGCAUCGAAAGAUGCAAUAAGCAGAUGCAGAUGCAAUAAGCAAAGCAUCAUCAAAAAGAUAGAUGCAAGCUUAUAUAUGCUUAUAUAUAUAGGAAACUAUAUAUAUAAGCAAUAUAUAAGCAAAGCAUCAAAAAAGAUGCAUAUAUAUAGGAAACUAUAUAUAUGAAGAUCGAAAGAUCAAGAUGCGAGAUGCAGAUCAGAGAGAGGAAACUCCUCGAUCAGAUCAUAUCGAAAGAUAUAGAUCACUAUAGAUAGAUCAAA'
p4
aF1.0
aa.