(lp0
(lp1
S'Pokeball'
p2
aS'...(((((((....((..((..(((..((..((..((..((..((..((...)).))..)).)).))..)).))).)).)))))))))........(((((((....((..((..(((..((..((..((..((..((..((...)).))..)).)).))..)).))).)).)))))))))...'
p3
aS'AAAGCUUAUCAAAAGUAAGUAAGAUAAGGUGCUAAGUAAGGUGCUAAGGAAACCAAGUGCCAACAAGUGCCAAUCAACAACGAUAAGCAAAAAAAAGCUUAUCAAAAGUAAGUAAGAUAAGGUGCUAAGUAAGGUGCUAAGGAAACCAAGUGCCAACAAGUGCCAAUCAACAACGAUAAGCAAA'
p4
aF0.7282608695652174
aa.