(lp0
(lp1
S'Mat - Lot 2-2 B'
p2
aS'(..(((..((((..((....((..((((....))....))..))))..))....))..))((..((..((..((((..((....((..((((..((....((....))))..))....))..))))..))((..((..((....))((..((((..((....((..((((....))....))..))))..))....))..))))..))..))..))((..((....((..((((..((....((....))))..))....))..))))..))))..))..)..)'
p3
aS'GUGCAGUGCGGGUGCUAAAAGGUGCGAGGAAACUAAAACGUGCCAGUGCCAAAACGUGCUGGUGCGAAGGUGCUGGUGCUAAAAGGUGCGGGUGCGAAAAGGGAAACCAGUGCCAAAACGUGCCAGUGCCAGUGCUAAAGGAAACUGGUGCGGGUGCUAAAAGGUGCGAGGAAACUAAAACGUGCCAGUGCCAAAACGUGCCAGUGCUAAAGUGCCAGUGCUAAAAGGUGCGGGUGCGAAAAGGGAAACCAGUGCCAAAACGUGCCAGUGCUCGUGCCAAGUGC'
p4
aF0.5316901408450704
aa.