(lp0
(lp1
S'Water Strider'
p2
aS'.....((.((..(((((.(((....)))(((....)))))).....((((((....)))(((....))).)))))..)).)).....................'
p3
aS'AAAAACCGCGUGCGCGGACCGGAAACGGGCCGAAAGGCCCGAAAAAGGGCCGGAAACGGGGGGAAACCCACCCCGUGCGGGGAAAAAAAAAAAAAAAAAAAAA'
p4
aF0.9611650485436893
aa.