(lp0
(lp1
S'Six legd Turtle'
p2
aS'.....((....((....))....((....))....((....))....((....))....((....))....((....))....))....................'
p3
aS'AAAAAGGAAAAGGGAAACCAAAAGCGAAAGCAAAACCGAAAGGAAAAGCGAAAGCAAAAGCGAAAGUAAAACGGAAACGAAAACCAAAAAAAAAAAAAAAAAAAA'
p4
aF1.0
aa.