(lp0
(lp1
S'Runner'
p2
aS'.....((((.((((.....((((...)))).))))...(((..((((((...)))...)))((((((...)))...))).)))...(((...(((....))).))).)))).....'
p3
aS'AAAAAGAUCAGAUCAAAAAGAUCAAAGAUCAGAUCAAAGAGAAGAGGAGAAACUCAAAAUCAUCGAGAAACUCAAAGAUAAUCAAAGAGAAAGAGGAAACUCACUCAGAUCAAAAA'
p4
aF0.8017241379310345
aa.