(lp0
(lp1
S'Saccharomyces Cerevisiae - Difficulty Level 0'
p2
aS'(((((((((((........)))).((...............))....(((((.......))))))))))))....(((((((..((((........))))(((.............)))....(((((.......))))))))))))....(((((((..((((........))))((((((.......))))))....(((((.......))))))))))))....(((((((..((((........))))((((((.......))))))....(((((.......))))))))))))....(((((((..((((........))))((((((.......))))))....(((((.......))))))))))))....'
p3
aS'GCUUAUCGAUCAAAAAAAAGAUCAGGAAAAAAAAAAAAAAAACAAAAGCAUCAAAAAAAGAUGCGAUAAGCAAAAGCUUAUCAAGAUCAAAAAAAAGAUCAUCAAAAAAAAAAAAAGAUAAAAGCAUCAAAAAAAGAUGCGAUAAGCAAAAGCUUAUCAAGAUCAAAAAAAAGAUCAUAUAGAAAAAAACUAUAUAAAAGCAUCAAAAAAAGAUGCGAUAAGCAAAAGCUUAUCAAGAUCAAAAAAAAGAUCAUAUAGAAAAAAACUAUAUAAAAGCAUCAAAAAAAGAUGCGAUAAGCAAAAGCUUAUCAAGAUCAAAAAAAAGAUCAUAUAGAAAAAAACUAUAUAAAAGCAUCAAAAAAAGAUGCGAUAAGCAAAA'
p4
aF0.8258575197889182
aa.