(lp0
(lp1
S'Cesspool'
p2
aS'(..(..(....)..(((..(.(.(((...)))..)..)..)))..(..(....)..).(..(....)..).....(....)..)..)..(..(..(....)..(((..(.(.(((...)))..)..)..)))..(..(....)..).(..(....)..).....(....)..)..)..((..(..(....)..(((..(.(.(((...)))..)..)..)))..(..(....)..).(..(....)..).....(....)..)..))..((..(..(....)..(((..(.(.(((...)))..)..)..)))..(..(....)..).(..(....)..).....(....)..)..))'
p3
aS'GUGCAAGAAAACAAGAGUGCAGAGAGAAACUCAAAAAGUGCUCAAGUGCAAAAGUGCAGUGCAAAAGUGCAAAAAGAAAACAAGUGCAAGUGCAAGAAAACAAGAGUGCAGAGAGAAACUCAAAAAGUGCUCAAGUGCAAAAGUGCAGUGCAAAAGUGCAAAAAGAAAACAAGUGCAAGGUGCAAGAAAACAAGAGUGCAGAGAGAAACUCAAAAAGUGCUCAAGUGCAAAAGUGCAGUGCAAAAGUGCAAAAAGAAAACAAGUGCCAAGGUGCAAGAAAACAAGAGUGCAGAGAGAAACUCAAAAAGUGCUCAAGUGCAAAAGUGCAGUGCAAAAGUGCAAAAAGAAAACAAGUGCC'
p4
aF0.5921787709497207
aa.