(lp0
(lp1
S'Taraxacum officinale'
p2
aS'((((....).))).((((....).))).((((....).))).((((....).))).((((....).))).((((....).))).((((((((((((((((((((((...)))).))))))).(((((..((((((((((..(((((((...))))))).))))))))))((((.((((((...)))))))))))))))...))))))))))).((((....).))).((((....).))).((((....).))).((((....).))).((((....).)))'
p3
aS'GAGGAAAACAAUCAGAGGAAAACAAUCAGAGGAAAACAAUCAGAGGAAAACAAUCAGAGGAAAACAAUCAGAGGAAAACAAUCAGCUUAUAUAUCGCUUAUCAUAGAAACUAUAGAUAAGCAGCAUCAAGCUUAUAUAGAAGCUUAUCAAAGAUAAGCAAUAUAUAAGCAUAGAGCUAUCAAAGAUAGCCUAUGAUGCAAAGAUAUAUAAGCAGAGGAAAACAAUCAGAGGAAAACAAUCAGAGGAAAACAAUCAGAGGAAAACAAUCAGAGGAAAACAAUC'
p4
aF0.7375886524822695
aa.