(lp0
(lp1
S'Gladius'
p2
aS'(....)..(....(...(..(.(..(...(((.(((...((((....)))).(((((..(.(((..(.((((..(.((((..(.((((((((.((((((.(((((.((((.((((..((((...)))).))).)))))).))))).)))))).)))))))..).))))..).))))..).)))..).))))).)))...(((.(((((.(..(((.(..((((.(..((((.(..(((((((.((((((.(((((.((((((.(((.((((((....))))))..)))).)))).))))).)))))).)))))))).)..)))).)..)))).)..))).)..))))).((((....))))...))).)))...)..).)..)...)....)..(....)'
p3
aS'CAAAAGAACAAAAGAAACUGCAGUGGAAAGCCAGCGAAACACGGAAACGUGAGCCCCAACACCCAACAGGCGAAGAGCUCAAGAGCCUCCCCAGCGCGGAGGUGGAGGCCACGGUAAGACCAAAGGUCAACCAGGGCCCACACCCACGCGCGAGGGAGGCAACAGAGCAACACGCCAAGAGGGAAGAGGGGCACGCAAACGGAGGAUGAGAACAGAGAAGCUCACAAGAGCACAAGCUUAUCAGGCACCACCGUCACGAUGGAGCGACGUUGGGAAACCAACGAACGCCACAUCAGGACGAGGGUGCACGAUAAGCAGAAGCUCAGAAGAGCACAACUGACAACAUCCACAUCGAAAGAUGAAACCGAGGCAAACUGCAGUGGAAACAAAAGAAGAAAAC'
p4
aF0.88
aa.