(lp0
(lp1
S'Gladius'
p2
aS'(....)..(....(...(..(.(..(...(((.(((...((((....)))).(((((..(.(((..(.((((..(.((((..(.((((((((.((((((.(((((.((((.((((..((((...)))).))).)))))).))))).)))))).)))))))..).))))..).))))..).)))..).))))).)))...(((.(((((.(..(((.(..((((.(..((((.(..(((((((.((((((.(((((.((((((.(((.((((((....))))))..)))).)))).))))).)))))).)))))))).)..)))).)..)))).)..))).)..))))).((((....))))...))).)))...)..).)..)...)....)..(....)'
p3
aS'CAAAAGAAGAAAACAAACUGGACUGCAAACGCACCCAAACGCGGAAACGCGAGCACGAAGAGAUAAGAGGUGAACACACGAAGAGCCCGUGCACCCCGCACCCCCAGGCCACGCUAAGGGCAAAGCCCAAGCAGGGCCGAGGGGGACGGGGGACACGGGCAACACGUGAAGACACCAACAAUCAACACGUGCAGGGAAACGGACGGCCACAAGGUAUAACACCAGAACGGCAUAAGCGCAUGAGCCACCACCCCCACCAGCCAGGUAGGCGGGGAAACCCGCCAAACCGAGCUGAGGGGGAGGGUGGACCAUGCGCAAAAGCCGACAAGGUGAAAAACCAGAAGGCCGACACCGAAAGGUGAAACCGAGCGAAAGUGGACUGGAAAGAAAACAACAAAAG'
p4
aF0.89
aa.