(lp0
(lp1
S'Recoil'
p2
aS'.....(((((..((..((..(((..(((..((..((...)).)).))).))).)).)).))))).....................'
p3
aS'AAAAAGCCUCAACUAAGUAAGAUAAGAUAAGGAACGAAACGACCAAUCAAUCAACAAGAGAGGCGAAAAAAAAAAAAAAAAAAAA'
p4
aF1.0
aa.