(lp0
(lp1
S'Still Life (Sunflower In A Vase)'
p2
aS'...((((..(((((.....)))))..(((((...)))))..(((((.....)))))..(((((...)))))..(((((.....)))))..(((((.....))))).((((((((((((((((((((((((((((......))))).(((((.............((((.........................................)))).............)))))(((((....))))).)))))))))))))))))))))))..(((((.....)))))..(((((.....)))))..(((((.....)))))..(((((.....)))))..(((((....)))))..(((((.....))))).))))...'
p3
aS'AAAGAUCACGCAUCAAAAAGAUGCACGCAUCAAAGAUGCACGCCUCAAAAAGAGGCACGCCUCAAAGAGGCACGCAUCAAAAAGAUGCACGCAUCAAAAAGAUGCAGCUUAUAUAUAUAUAUAUAGCUGGCAUCAAAAAAGAUGCAGCAUCAAAAAAAAAAAAAGAUCGGGGGGGGGGGGGGGGGGGGGGGGGGGGGGGGGGGGGGGGAGAUCAAAAAAAAAAAAAGAUGCGCAUGGAAACAUGCACAGCUAUAUAUAUAUAUAUAAGCACGCAUCAAAAAGAUGCACGCAUCAAAAAGAUGCACGCAUCAAAAAGAUGCACCCAUCAAAAAGAUGGACGCAGCGAAAGCUGCACGCAUCAAAAAGAUGCAGAUCAAA'
p4
aF1.0
aa.