(lp0
(lp1
S'Mutated chicken feet'
p2
aS'.......((.((.((...)).((...))...)))).((.((.((...)).((...))...)))).((.((.((...)).((...))...)))).......'
p3
aS'AAAAAAAGGAGGAGGAAACCAGGAAACCAAACCCCAGGAGGAGGAAACCAGGAAACCAAACCCCAGGAGGAGGAAACCAGGAAACCAAACCCCAAAAAAA'
p4
aF0.8
aa.