(lp0
(lp1
S'Mat - Martian 2'
p2
aS'((((....))))...(((((((..(((((((.......))))))))))))))...((((((((......(((((((.(((((((.......))))))))))))))...((((((((((((((.......))))))).)))))))......))))))))...((((((((((((((.......)))))))..)))))))...((((....))))'
p3
aS'GAUCGAAAGAUCAAACCUUAUCAAGCUUACCAAAAAAAGGUAAGCGAUAAGGAAAGCUCAUAUAAAAAAGGGUAUCAGCUUAUCAAAAAAAGAUAAGCGAUACCCAAACCUUAGCAUAUAUCAAAAAAAGAUAUAUAGCUAAGGAAAAAAAUAUGAGCAAAGCUUAUCGCUUAUCAAAAAAAGAUAAGCAAGAUAAGCAAACAUCGAAAGAUG'
p4
aF1.0
aa.