(lp0
(lp1
S'Variation of a crop circle'
p2
aS'....((....((....((....((..((..((...))..))....))......)).......)).........)).............'
p3
aS'AAAAGGAAAAGGAAAAGGAAAAGGAAGGUGCGAAACGUGCCAAAACCAAAAAACCAAAAAAACCAAAAAAAAAACAAAAAAAAAAAAA'
p4
aF0.8181818181818182
aa.