(lp0
(lp1
S'Kyurem 7'
p2
aS'.....((((((((((....)))(((....((((.(((.....))).((((((......)))...))))))))))))).))))....................'
p3
aS'AAAAAGAUCAUCGAGGAAACUCGAUAAAAGAUCAGAUAAAAAAUCAGAUGAGAAAAAACUCAAAAUCGAUCAUCGAUAGAUCAAAAAAAAAAAAAAAAAAAA'
p4
aF0.8529411764705882
aa.