(lp0
(lp1
S'Fractile'
p2
aS'............((....))...((...((....))..((...((....))...))..((....))...))..((....))........................'
p3
aS'AAAAAAAAAAAAGGGAAACUAAAGGAAAGGGAAACUAAGGAAAGGGAAACUAAACCAAGGGAAACUAAAACAAGGGAAACUAAAAAAAAAAAAAAAAAAAAAAAA'
p4
aF0.8476190476190476
aa.