(lp0
(lp1
S'Chicken Tracks'
p2
aS'........(((((((((((....))))..((((....))))..((((....)))))))))))..(((((((...))))..((((...))))..((((...))))))).........'
p3
aS'AAAAAAAAGCGUAUCGAGCGAAAGCUCAAGAGCGAAAGCUCAAGAUCGAAAGAUCGAUACGCAAGACGAUGAAACAUCAAGAUGAAACAUCAAGAGCAAAGCUCGUCAAAAAAAAA'
p4
aF1.0
aa.