(lp0
(lp1
S'Kyurem 5'
p2
aS'.....((((((((((....)))(((....((((((((...(((.....)))))))(((......))).))))))))))..))))....................'
p3
aS'AAAAAGCUCGCGGCGGAAACGCCCCAAAACCGCGACCAAAGCCAAAAAGGCGGUCCCCAAAAAAGGGAGCGGGGGCGCAAGAGCAAAAAAAAAAAAAAAAAAAA'
p4
aF1.0
aa.