(lp0
(lp1
S'Shooting Star'
p2
aS'(((((((((((((((((...(.(..((.(((.(((.((....).))).)))).).)..))..))))))).(((((..(.(..((.(((.(((((.(((.((((.((....).)))).))))).))).)))).).)..))..)(....)..))))(((((((((...))))).(((((...)))))(.(....).).)))).)))).((((.((((...(((((((...))))))).(((((...)))))))))(((((((...))))))).(((((...)))))))))((((..(....)(..(..(..(.(.(((.((((.((....).)))).)))).)..)..).)..))))).)))))).'
p3
aS'CCCCCCGCCCCGCGGGCAAAGAGUGGCGCGGAGGGAGCAAAAGACCCACCCGGGACUGCCAAGCCCGCGAGCCGGGAGACUGCCGCGGACGCGGAGGGACGCGACCAAAAGAGCGCAGCCCCACGCAGCCGGGAGUGGCGACGAAAACAACGGCGAGCGCGGCAAAGCCGCAGGGCCAAAGGCCCCGCAAAAGGGAGCUCAGGGCAGGUCAGGCGAAAGGCUCUGAAACAGAGCCAGCCGGAAACCGGCCGCCGCGGGCGAAACGCCCGCAGGCCGAAACGGCCGACCGCCCAAGAAAACGGACAACUGCACGGGCACCACACCAAAAGAGGUGAGGCCGGAAGUGGAGGACGGGCAGGGGGGA'
p4
aF0.9175824175824175
aa.