(lp0
(lp1
S'Shooting Star'
p2
aS'(((((((((((((((((...(.(..((.(((.(((.((....).))).)))).).)..))..))))))).(((((..(.(..((.(((.(((((.(((.((((.((....).)))).))))).))).)))).).)..))..)(....)..))))(((((((((...))))).(((((...)))))(.(....).).)))).)))).((((.((((...(((((((...))))))).(((((...)))))))))(((((((...))))))).(((((...)))))))))((((..(....)(..(..(..(.(.(((.((((.((....).)))).)))).)..)..).)..))))).)))))).'
p3
aS'GCCCACGGCGCGCGAGGAAAGAGUGGCGCCGACGCAGCAAAAGACGCAGCGGGGACUGCCAACCUCGCGAGGGGCGACACUGGGGCCUAGGGGCAGGGACCCGACCAAAAGAGCGGAGCCCGACCCACAGGGCACUGGGGAGGAAAACAACCCCGCGGCCGCCAAAGGCGGAGCACGAAACGUGCGGGAAAACGCACCGCACGCCAGGCCAGACGAAACCCGCGGAAACCGCGGGAGCAUGAAACAUGCCGUCCCGGACGAAACGUCCGGAGCCGGAAACCGGCGGCCCCCCAAGAAAACGGACAAGUGGACGGAUACCAGACGAAAACAGCUGAGAUCGGAACUGCAGGACGGGGAGUGGGCA'
p4
aF0.9120879120879121
aa.