(lp0
(lp1
S'Crop circle 2'
p2
aS'((...((....((.....((.........((..............................))...............)).........)).......))....))....'
p3
aS'GGAAAGGAAAAGGAAAAAGGAAAAAAAAAGGAAAAAAAAAAAAAAAAAAAAAAAAAAAAAACCAAAAAAAAAAAAAAACCAAAAAAAAAACAAAAAAACCAAAACCAAAA'
p4
aF0.8181818181818182
aa.