(lp0
(lp1
S'Kyurem 7'
p2
aS'.....((((((((((....)))(((....((((.(((.....))).((((((......)))...))))))))))))).))))....................'
p3
aS'AAAAAGCCCCUGGCGGAAACGCCCUAAAAGGUCAGGUAAAAAACCAGGUGAGAAAAAACUCAAAACCGACCAGGCAGAGGGCAAAAAAAAAAAAAAAAAAAA'
p4
aF1.0
aa.