(lp0
(lp1
S'"1,2,3and4bulges"'
p2
aS'.....((((.(((((....))....))).(((....))).)).))....((((.(((....)...)).(((....))).))..))....................'
p3
aS'AAAAAGGGGAGAGGGGAAACUAAAACUCAGAGGAAACUCAACAACAAAAGGGGAGGGAAAACAAAACAGAGGAAACUCAACAACCAAAAAAAAAAAAAAAAAAAA'
p4
aF0.7238095238095238
aa.