(lp0
(lp1
S'[RNA] Repetitious Sequences 8/10'
p2
aS'.((......((......))......((......((......))......((......))......))......)).....'
p3
aS'AGGAAAAAAGGAAAAAACCAAAAAAGGAAAAAAGGAAAAAACCAAAAAAGGAAAAAACCAAAAAAACAAAAAAACAAAAA'
p4
aF0.85
aa.