(lp0
(lp1
S'Flower power'
p2
aS'.....((((((((...)))).((((((((...))))..((((...))))..((((...)))))))).((((...))))))))....................'
p3
aS'AAAAAGACGGGCGAAACGCCAGAGCGGCCAAAGGCCAAGAUCAAAGAUCAACACCAAAGGUGGCUCAGAUCAAAGAUCCGUCAAAAAAAAAAAAAAAAAAAA'
p4
aF1.0
aa.