(lp0
(lp1
S'Snowflake 3'
p2
aS'(((((....)).((((((....)))..((((.((((..(((....)))(((.((....))(((...)))((....)).)))(((....)))..)))).((((..(((....)))(((.((....))(((...)))((....)).)))(((....)))..)))).((((..(((....)))(((.((....))(((...)))((....)).)))(((....)))..)))).((((..(((....)))(((.((....))(((...)))((....)).)))(((....)))..)))).((((..(((....)))(((.((....))(((...)))((....)).)))(((....)))..)))).))))..(((....)))))).((....)))))'
p3
aS'CGCCCGAAAGGACCCCCGGAAACGGAACGCCAGCCCAAGGCGAAAGCCGACAGGGAAACCGACAAAGUCGCGAAAGCAGUCGCCGAAAGGCAAGGGCACAGGAACAGGAAACUGGGCACCGAAAGGCCGAAACGGGGGAAACCAGCCGCCGAAAGGCAACCUGAGAGCAACGGGAAACCGCCCAGCGAAAGCGCGAAACGCGGGAAACCAGGGGCCGAAAGGCAAGCUCACAUCAACGCGAAAGCGCCGACGGAAACGGGCAAAGCCGCGAAAGCACGGGACGAAAGUCAAGAUGACACCAAGGGGAAACCCGCCACCGAAAGGGAGAAACUCGGGAAACCAGGCCAGGAAACUGAAGGUGAGGCGAAGGGGAAACCCGGGAGGGAAACCGCG'
p4
aF1.0
aa.