(lp0
(lp1
S'Kyurem 5'
p2
aS'.....((((((((((....)))(((....((((((((...(((.....)))))))(((......))).))))))))))..))))....................'
p3
aS'AAAAAGAUCGAUGAGGAAACUCGAUAAAAGAUCGAUCAAAGAUAAAAAAUCGAUCGAGAAAAAACUCAGAUCAUCAUCAAGAUCAAAAAAAAAAAAAAAAAAAA'
p4
aF0.8365384615384616
aa.