(lp0
(lp1
S'InfoRNA bulge test'
p2
aS'.............................((((......((((....((((...((((..((((.((((.....)).)).)).))..)).))...)).)).....)).))......)).)).'
p3
aS'AAAAAAAAAAAAAAAAAAAAAAAAAAAAACCGGAAAAAACGCCAAAAGGGGAAAGCGCUGCGCCGGCGGAAAAACCAGCGGGACGUGGCAGCAAACCACCAAAAAGGACGAAAAAACCAGGA'
p4
aF0.9672131147540983
aa.