(lp0
(lp1
S'Fractile'
p2
aS'............((....))...((...((....))..((...((....))...))..((....))...))..((....))........................'
p3
aS'AAAAAAAAAAAACGGAAACGAAAGCAAACGGAAACGAACCAAACGGAAACGAAAGGAAGGGAAACCAAAGCAAGGGAAACCAAAAAAAAAAAAAAAAAAAAAAAA'
p4
aF1.0
aa.