(lp0
(lp1
S'Fractal 3'
p2
aS'.....((((.(((.((....))((....)).))).(((.((....))((....)).))).(((.((....))((....)).))).(((.((....))((....)).))).)))).....'
p3
aS'AAAAAGAUCAGAUAAGGAAACUAGGAAACUAAUCAGAUAAGGAAACUAGGAAACUAAUCAGAUAAGGAAACUAGGAAACUAAUCAGAUAAGGAAACUAGGAAACUAAUCAGAUCAAAAA'
p4
aF0.7647058823529411
aa.