(lp0
(lp1
S'Spiral'
p2
aS'.....((((.((((((.(((.(((((.((((.((((.((.((.((.((.((.((.....)))))))))))))))))))))))))))))))))))))).....'
p3
aS'AAAAAGAUCAGCUUAGAGAGAGCAUCAGAUCAGAUCAGGAGGAGGAGGAGGAGUAAAAAACCCCCCCCCCCGAUCGAUCGAUGCCUCCUAAGCGAUCAAAAA'
p4
aF1.0
aa.