(lp0
(lp1
S'Mat - Lot 2-2 B'
p2
aS'(..(((..((((..((....((..((((....))....))..))))..))....))..))((..((..((..((((..((....((..((((..((....((....))))..))....))..))))..))((..((..((....))((..((((..((....((..((((....))....))..))))..))....))..))))..))..))..))((..((....((..((((..((....((....))))..))....))..))))..))))..))..)..)'
p3
aS'GUGGCCUGCCGCUGGCAAAACGUGGCCCGAAAGGAAAAGCUGCGGCUGGCAAAAGGUGGGGGUGCGAAGGUGCGGGUGCCAAAAGCUGCCCCUGGCAAAACGGAAACGGCUGGGAAAAGGUGGCGGUGCCGGUGCGAAGCGAAAGCGCUGGGCCUGCCAAAACCUGGCGGGAAACCAAAAGCUGGGGGUGGGAAAACCUGGCCGUGCCAACGUGCCCGUGCGAAAAGCUGGGCGUGCGAAAAGGGAAACCCGUGCGAAAACCUGGCCGUGCGCGUGCCAACUGC'
p4
aF0.7746478873239436
aa.