(lp0
(lp1
S'Fractal 2'
p2
aS'.....((((((((...((((((((((..((((..........))))..((((..........))))..((((..........))))..))))))))))...((((((((((..((((..........))))..((((..........))))..((((..........))))..))))))))))...((((((((((..((((..........))))..((((..........))))..((((..........))))..))))))))))...)))))))).....'
p3
aS'AAAAAGCUUAUAUAAAGCUUAUAUAUAAGAUCAAAAAAAAAAGAUCAAGAUCAAAAAAAAAAGAUCAAGAUCAAAAAAAAAAGAUCAAAUAUAUAAGCAAAGCUUAUAUAUAAGAUCAAAAAAAAAAGAUCAAGAUCAAAAAAAAAAGAUCAAGAUCAAAAAAAAAAGAUCAAAUAUAUAAGCAAAGCUUAUAUAUAAGAUCAAAAAAAAAAGAUCAAGAUCAAAAAAAAAAGAUCAAGAUCAAAAAAAAAAGAUCAAAUAUAUAAGCAAAAUAUAAGCAAAAA'
p4
aF0.8169014084507042
aa.