(lp0
(lp1
S'Campfire'
p2
aS'....((((..(((((..((((..((((.....))))((((((...))).)))))))((((((.((.((.(((((....)).)))))))(((((.((.((.((....))))))((((.(((....)).)).)))..)).)))))).))))))))(((.(((.(((.((((....))))))))))((((((((...))).)).))).)))))))'
p3
aS'AAAAGCCCAAGGCGCAAGGUGAAGCCGAAAAACGGCCUGCGGAAACCGACAGCACCGGCGGGACGACGACGCCGGAAACGAGCGCGCGCCCGGACGAGGACGGAAACGCCCGCUGGAGGCGAAAGCACCACAGAACCAGGGCCCAGCCGCGCCGGGACGCAGCCAGCCCGAAAGGGCGGCGCGCGGGGGCGAAACGCACCACCGACCCGGGC'
p4
aF0.9905660377358491
aa.