(lp0
(lp1
S'Looking Back Again'
p2
aS'(((..(((((((.....((((((...)))))).))))..((((((..(((...)))))).(((((...((((....))))....)))))..)))..)))..(((((((.....(((((....)))))......)))((((((((((...)))))(((((...)))))((((((((..(..(..(..(..(..((((....))))..).)..))..).))(((....)))..))))))...))))))))).(((((.((((......(((((((........((((.....))))))))...))).))))((((......((((((((....))))))..(((((...)).(((((...)))))..)))))....)))))))))...)))'
p3
aS'GAGAAGAGGAUCAAAAAGCUUAGAAACUAAGCAGAUCAAGAGAUCAAGAGAAACUCGAUAGCAUCAAAGAUCGAAAGAUCAAAAGAUGCAAAUCAACUCAAGAUCGAGAAAAAGCAUCGAAAGAUGCAAAAAACUCGCAUCGCAUCAAAGAUGCGCAUCAAAGAUGCGCUUAGGGAAGUGCAAGUGCAAGUGCAUCGAAAGAUGUGCAGUGCGUGCAACAUCGAAAGAUAACUAAGCAAAGAUGCGAUCAGCAUCAGAUCAAAAAAGAGGAUCAAAAAAAAGAUCAAAAAGAUCGAUCAAAAUCAGAUCGAUCAAAAAAGGGCUUAGGAAACUAAGCAAGAGAGAAACUAGCAUCAAAGAUGCAAAUCACAAAAGAUCGAUGCAAAAUC'
p4
aF0.7660668380462725
aa.