(lp0
(lp1
S'Kudzu'
p2
aS'.....(((.(..(.(((((.((((.((...)))).))))((((((...)).))))..(((...)))...))).)..).)))....................'
p3
aS'AAAAAGAGGGGACGCAGGGACCGGAGCAAAGCCCAGGCCGCCCCCAAAGGAGGGCAAGGGAAACCCAAACUGGGGACGCUCAAAAAAAAAAAAAAAAAAAA'
p4
aF1.0
aa.