(lp0
(lp1
S'Flower power'
p2
aS'.....((((((((...)))).((((((((...))))..((((...))))..((((...)))))))).((((...))))))))....................'
p3
aS'AAAAAGAUCGAUCAAAGAUCAGAUCGAUCAAAGAUCAAGAUCAAAGAUCAAGAUCAAAGAUCGAUCAGAUCAAAGAUCGAUCAAAAAAAAAAAAAAAAAAAA'
p4
aF0.8431372549019608
aa.