(lp0
(lp1
S'Methaqualone C16H14N2O Structural Representation'
p2
aS'.......((((.((((.(((.(((....))).(((.(((....))).(((.(((....))).(((.(((....))).(((.......))).))).))).))).))).(...).)))).((((...((.(((...((...))........))).(((.(((....)))(((....)))(((....)))))).))...((((.(...).(((.(((.(((.(((.(((....(((....))).))).(((....))).))).(((....))).))).(((....))).))).((((((....)))(((....))).(((....)))))).))).))))...)))).)))).......'
p3
aS'AAAAAAAGGCGACCGCAGCGACCGGAAACGGAGGCAGCCGAAAGGCAGGGACCCGAAAGGGAGGCAGACGAAAGUCAGCGAAAAAAACGCAGCCACCCAGCCACGCAGAAACAGCGGAGCGGAAACGAGACAAAGCAAAGCAAAAAAAAGUCACCCACCCGAAAGGGGCGGAAACGCCCCGAAAGGGGGGACGAAACGCGACAAAGAGGCAGGCACCGAGGGAGCCAAAACCCGAAAGGGAGGCACGCGAAAGCGACCCACGCGAAAGCGACGGACACGAAAGUGAGCCAGCCCCGGAAACGGCCGGAAACGGAGGCGAAAGCCGGCAGCCACGCGAAACCGCACGCCAAAAAAA'
p4
aF0.9492957746478873
aa.