(lp0
(lp1
S'Methaqualone C16H14N2O Structural Representation'
p2
aS'.......((((.((((.(((.(((....))).(((.(((....))).(((.(((....))).(((.(((....))).(((.......))).))).))).))).))).(...).)))).((((...((.(((...((...))........))).(((.(((....)))(((....)))(((....)))))).))...((((.(...).(((.(((.(((.(((.(((....(((....))).))).(((....))).))).(((....))).))).(((....))).))).((((((....)))(((....))).(((....)))))).))).))))...)))).)))).......'
p3
aS'AAAAAAACAUGAGGGGACGCACCGGAAACGGAGGCAGAGGAAACUCAGGGAGGCGAAAGCCAGGCAGGGGAAACCCAGCCAAAAAAAGGCAGCCACCCAGCCAGCGACAAAGACCCCAGCCCAAACCAGGGAAACCAAAGGAAAAAAAACCCAGCGACGGGAAACCGGCCGAAAGGCGGCGAAAGCCCGCAGGAAAGGUCACAAAGAGGCACGGACGGAGCCACGGAAAACCCGAAAGGGACCGAGCGGAAACGCAGGCACCCGAAAGGGACCGACGGGAAACCGACCGACCGCCGGAAACGGGGGGAAACCCAGCCGAAAGGCCGGAGCCAGACCAAAGGGCACAUGAAAAAAA'
p4
aF0.9549295774647887
aa.