(lp0
(lp1
S'Methaqualone C16H14N2O Structural Representation'
p2
aS'.......((((.((((.(((.(((....))).(((.(((....))).(((.(((....))).(((.(((....))).(((.......))).))).))).))).))).(...).)))).((((...((.(((...((...))........))).(((.(((....)))(((....)))(((....)))))).))...((((.(...).(((.(((.(((.(((.(((....(((....))).))).(((....))).))).(((....))).))).(((....))).))).((((((....)))(((....))).(((....)))))).))).))))...)))).)))).......'
p3
aS'AAAAAAACCGGACGGCACGGAGGGGAAACCCACGGACGCGAAAGCGACCGACGGGAAACCGACGCAGGCGAAAGCCAGGCAAAAAAAGCCAGCGACGGACCGACCGAGAAACAGCCGACCGGAAAGGACCGAAAGGAAACCAAAAAAAACGGACCCAGGGGAAACCCGCCGAAAGGCCGCGAAAGCGGGGACCAAACCGGAGAAACAGCGACCGACCCAGGCAGGGAAAACGGGAAACCGACCCAGGGGAAACCCAGCCAGCCGAAAGGCAGGGACCCGAAAGGGACGGACCCGGCGAAAGCCGGCGAAAGCCACGCGAAAGCGGGGACGCACCGGAAACCGGACCGGAAAAAAA'
p4
aF0.971830985915493
aa.