(lp0
(lp1
S'Human Integrated Adenovirus - Difficulty Level 0'
p2
aS'((((((((((((((.((((((...........((((((((((((.....((((((((....(((((((((((((........))))))))))....))))))))....))))))....)))))...((((((.......))))))))))............)))))).))))....))))))...))))...'
p3
aS'GAGCCCUUAGGAUCAGCUUAGAAAAAAAAAAAGAUCAUAUCGGCAAAAACCCGCAUCAAAAGGGGCCUGUAUGGAAAAAAAACCAUACAGGCAAAACCCGAUGCAAAAGGGGCCAAAAGAUAUAAACCUUAGAAAAAAACUAAGGGAUCAAAAAAAAAAAACUAAGCAGAUCAAAACUAAGGAAAGCUCAAA'
p4
aF1.0
aa.