(lp0
(lp1
S'Chalk Outline'
p2
aS'.....((((.(((((....)).))).(((.(((....)))))).((((((....)).)))).(((((....))).)))))).......................'
p3
aS'AAAAAGAUCAGAUAGGAAACUAAUCAGAGAGAGGAAACUCCUCAGAUCAGGAAACUAGAUCAGGGAGGAAACUCACCGAUCAAAAAAAAAAAAAAAAAAAAAAA'
p4
aF1.0
aa.