(lp0
(lp1
S'Shapes and Energy'
p2
aS'......(.((((.((((....(...((((.(....).))))...)))))..((......((((....)))))).)))).).....................'
p3
aS'AAAAAACGGCGCAGGGCAAAAGAAACCCCAGAAAACAGGGGAAACGCCCAAGCAAAAAACGGCGAAAGCCGGCAGCGCGGGAAAAAAAAAAAAAAAAAAAA'
p4
aF0.9207920792079208
aa.