(lp0
(lp1
S'Mat - Elements & Sections'
p2
aS'.....((((.(...(.((((.(.((((.((.((((.((.(((....))).).)))))).)))))....).)))).)...).))))....................'
p3
aS'AAAAAGAGCAGAAAGGCAUCACACCGGAGGAGACCACCGCGGGAAACCGGGAGGGUCCACCCGGAAAAGAGAUGGCAAACAGCUCAAAAAAAAAAAAAAAAAAAA'
p4
aF0.9238095238095239
aa.