(lp0
(lp1
S'Crop circle 2'
p2
aS'((...((....((.....((.........((..............................))...............)).........)).......))....))....'
p3
aS'GGAAAGGAAAAGCAAAAACCAAAAAAAAACGAAAAAAAAAAAAAAAAAAAAAAAAAAAAAACGAAAAAAAAAAAAAAAGGAAAAAAAAAGCAAAAAAACCAAAACCAAAA'
p4
aF0.9272727272727272
aa.