(lp0
(lp1
S'Quasispecies 2-2 Loop Challenge'
p2
aS'.....((((((((..((((....))))..)))).((((..(...)..)))).((((..(..(((.....)))..)..))))))))....................'
p3
aS'AAAAAGAUCGAUCGAGAUCGAAAGAUCGAGAUCAGAUCGAGAAACGAGAUCAGAUCGAGUGCAUAAAAAAUGUGCGAGAUCGAUCAAAAAAAAAAAAAAAAAAAA'
p4
aF0.8666666666666667
aa.